target datalayout = "e-m:e-p270:32:32-p271:32:32-p272:64:64-i64:64-i128:128-f80:128-n8:16:32:64-S128"
target triple = "x86_64-pc-linux-gnu"

%struct._zend_refcounted_h = type { i32, %union.anon }
%union.anon = type { i32 }
%struct.__va_list_tag = type { i32, i32, ptr, ptr }

; Function Attrs: nounwind uwtable
define internal void @zend_error_va_list(i32 noundef %0, ptr noundef %1, i32 noundef %2, ptr noundef %3, ptr noundef %4) #0 {
  %6 = alloca ptr, align 8
  %7 = alloca i32, align 4
  %8 = alloca i32, align 4
  %9 = alloca ptr, align 8
  %10 = alloca i32, align 4
  %11 = alloca ptr, align 8
  %12 = alloca i32, align 4
  %13 = alloca ptr, align 8
  %14 = alloca ptr, align 8
  %15 = alloca ptr, align 8
  store i32 %0, ptr %10, align 4
  store ptr %1, ptr %11, align 8
  store i32 %2, ptr %12, align 4
  store ptr %3, ptr %13, align 8
  store ptr %4, ptr %14, align 8
  %16 = load ptr, ptr %13, align 8
  %17 = load ptr, ptr %14, align 8
  %18 = call ptr @zend_vstrpprintf(i64 noundef 0, ptr noundef %16, ptr noundef %17)
  store ptr %18, ptr %15, align 8
  %19 = load i32, ptr %10, align 4
  %20 = load ptr, ptr %11, align 8
  %21 = load i32, ptr %12, align 4
  %22 = load ptr, ptr %15, align 8
  call void @zend_error_zstr_at(i32 noundef %19, ptr noundef %20, i32 noundef %21, ptr noundef %22)
  %23 = load ptr, ptr %15, align 8
  store ptr %23, ptr %9, align 8
  %24 = load ptr, ptr %9, align 8
  %25 = getelementptr inbounds %struct._zend_refcounted_h, ptr %24, i32 0, i32 1
  %26 = load i32, ptr %25, align 4
  store i32 %26, ptr %7, align 4
  %27 = load i32, ptr %7, align 4
  %28 = and i32 %27, 1008
  %29 = and i32 %28, 64
  %30 = icmp ne i32 %29, 0
  br i1 %30, label %54, label %31

31:                                               ; preds = %5
  %32 = load ptr, ptr %9, align 8
  store ptr %32, ptr %6, align 8
  %33 = load ptr, ptr %6, align 8
  %34 = load i32, ptr %33, align 4
  %35 = icmp ugt i32 %34, 0
  call void @llvm.assume(i1 %35)
  %36 = load ptr, ptr %6, align 8
  %37 = load i32, ptr %36, align 4
  %38 = add i32 %37, -1
  store i32 %38, ptr %36, align 4
  %39 = icmp eq i32 %38, 0
  br i1 %39, label %40, label %53

40:                                               ; preds = %31
  %41 = load ptr, ptr %9, align 8
  %42 = getelementptr inbounds %struct._zend_refcounted_h, ptr %41, i32 0, i32 1
  %43 = load i32, ptr %42, align 4
  store i32 %43, ptr %8, align 4
  %44 = load i32, ptr %8, align 4
  %45 = and i32 %44, 1008
  %46 = and i32 %45, 128
  %47 = icmp ne i32 %46, 0
  br i1 %47, label %48, label %50

48:                                               ; preds = %40
  %49 = load ptr, ptr %9, align 8
  call void @free(ptr noundef %49) #18
  br label %52

50:                                               ; preds = %40
  %51 = load ptr, ptr %9, align 8
  call void @_efree(ptr noundef %51) #18
  br label %52

52:                                               ; preds = %50, %48
  br label %53

53:                                               ; preds = %52, %31
  br label %54

54:                                               ; preds = %53, %5
  ret void
}

; Function Attrs: nounwind uwtable
define void @zend_error_unchecked(i32 noundef %0, ptr noundef %1, ...) #0 {
  %3 = alloca i32, align 4
  %4 = alloca ptr, align 8
  %5 = alloca ptr, align 8
  %6 = alloca i32, align 4
  %7 = alloca [1 x %struct.__va_list_tag], align 16
  store i32 %0, ptr %3, align 4
  store ptr %1, ptr %4, align 8
  br label %8

8:                                                ; preds = %2
  %9 = load i32, ptr %3, align 4
  call void @get_filename_lineno(i32 noundef %9, ptr noundef %5, ptr noundef %6)
  %10 = getelementptr inbounds [1 x %struct.__va_list_tag], ptr %7, i64 0, i64 0
  call void @llvm.va_start(ptr %10)
  %11 = load i32, ptr %3, align 4
  %12 = load ptr, ptr %5, align 8
  %13 = load i32, ptr %6, align 4
  %14 = load ptr, ptr %4, align 8
  %15 = getelementptr inbounds [1 x %struct.__va_list_tag], ptr %7, i64 0, i64 0
  call void @zend_error_va_list(i32 noundef %11, ptr noundef %12, i32 noundef %13, ptr noundef %14, ptr noundef %15)
  %16 = getelementptr inbounds [1 x %struct.__va_list_tag], ptr %7, i64 0, i64 0
  call void @llvm.va_end(ptr %16)
  br label %17

17:                                               ; preds = %8
  ret void
}