; Function Attrs: nounwind uwtable
define void @zend_error_unchecked(i32 noundef %0, ptr noundef %1, ...) local_unnamed_addr #0 {
  %3 = alloca ptr, align 8
  %4 = alloca i32, align 4
  %5 = alloca [1 x %struct.__va_list_tag], align 16
  call fastcc void @get_filename_lineno(i32 noundef %0, ptr noundef nonnull %3, ptr noundef nonnull %4)
  call void @llvm.va_start(ptr nonnull %5)
  %6 = load ptr, ptr %3, align 8
  %7 = load i32, ptr %4, align 4
  %8 = call ptr @zend_vstrpprintf(i64 noundef 0, ptr noundef %1, ptr noundef nonnull %5)
  call void @zend_error_zstr_at(i32 noundef %0, ptr noundef %6, i32 noundef %7, ptr noundef %8)
  %9 = getelementptr inbounds i8, ptr %8, i64 4
  %10 = load i32, ptr %9, align 4
  %11 = and i32 %10, 64
  %.not.i = icmp eq i32 %11, 0
  br i1 %.not.i, label %12, label %zend_error_va_list.exit

12:                                               ; preds = %2
  %13 = load i32, ptr %8, align 4
  %14 = icmp ne i32 %13, 0
  call void @llvm.assume(i1 %14)
  %15 = add i32 %13, -1
  store i32 %15, ptr %8, align 4
  %16 = icmp eq i32 %15, 0
  br i1 %16, label %17, label %zend_error_va_list.exit

17:                                               ; preds = %12
  %18 = and i32 %10, 128
  %.not15.i = icmp eq i32 %18, 0
  br i1 %.not15.i, label %20, label %19

19:                                               ; preds = %17
  call void @free(ptr noundef nonnull %8) #30
  br label %zend_error_va_list.exit

20:                                               ; preds = %17
  call void @_efree(ptr noundef nonnull %8) #30
  br label %zend_error_va_list.exit

zend_error_va_list.exit:                          ; preds = %2, %12, %19, %20
  call void @llvm.va_end(ptr nonnull %5)
  ret void
}